target datalayout = "e-m:e-p270:32:32-p271:32:32-p272:64:64-i64:64-i128:128-f80:128-n8:16:32:64-S128"
target triple = "x86_64-pc-linux-gnu"

%class.methodHandle = type { ptr, ptr }
%class.Relocator = type { ptr, i32, i32, ptr, i32, %class.methodHandle, [3 x i8], ptr, ptr }
%class.GrowableArrayView = type { %class.GrowableArrayBase, ptr }
%class.GrowableArrayBase = type { i32, i32 }
%class.ChangeItem.base = type <{ ptr, i32 }>
%class.ChangeItem = type <{ ptr, i32, [4 x i8] }>
%class.ChangeJumpWiden = type { %class.ChangeItem.base, i32 }

@_ZTV10ChangeItem = linkonce_odr hidden unnamed_addr constant { [6 x ptr] } { [6 x ptr] [ptr null, ptr null, ptr @__cxa_pure_virtual, ptr @_ZN10ChangeItem13is_switch_padEv, ptr @_ZN10ChangeItem6adjustEii, ptr @__cxa_pure_virtual] }, comdat, align 8

; Function Attrs: mustprogress nounwind uwtable
define linkonce_odr hidden noundef i32 @_ZN21CountLeadingZerosImplIiLm4EE4doitEi(i32 noundef %0) #1 comdat align 2 {
  %2 = alloca i32, align 4
  store i32 %0, ptr %2, align 4
  %3 = load i32, ptr %2, align 4
  %4 = call i32 @llvm.ctlz.i32(i32 %3, i1 true)
  ret i32 %4
}

; Function Attrs: mustprogress nounwind uwtable
define linkonce_odr hidden noundef i32 @_Z19count_leading_zerosIiEjT_(i32 noundef %0) #1 comdat {
  %2 = alloca i32, align 4
  store i32 %0, ptr %2, align 4
  %3 = load i32, ptr %2, align 4
  %4 = call noundef i32 @_ZN21CountLeadingZerosImplIiLm4EE4doitEi(i32 noundef %3)
  ret i32 %4
}

; Function Attrs: mustprogress nounwind uwtable
define linkonce_odr hidden noundef i32 @_Z5log2iIiTnNSt9enable_ifIXcvbsr3std11is_integralIT_EE5valueEiE4typeELi0EEiS1_(i32 noundef %0) #1 comdat {
  %2 = alloca i32, align 4
  %3 = alloca i32, align 4
  store i32 %0, ptr %2, align 4
  store i32 32, ptr %3, align 4
  %4 = load i32, ptr %2, align 4
  %5 = call noundef i32 @_Z19count_leading_zerosIiEjT_(i32 noundef %4)
  %6 = sub i32 32, %5
  %7 = sub i32 %6, 1
  ret i32 %7
}

; Function Attrs: mustprogress nounwind uwtable
define linkonce_odr hidden noundef zeroext i1 @_Z13is_power_of_2IiTnNSt9enable_ifIXcvbsr3std11is_integralIT_EE5valueEiE4typeELi0EEbS1_(i32 noundef %0) #1 comdat {
  %2 = alloca i32, align 4
  store i32 %0, ptr %2, align 4
  %3 = load i32, ptr %2, align 4
  %4 = icmp sgt i32 %3, 0
  br i1 %4, label %5, label %11

5:                                                ; preds = %1
  %6 = load i32, ptr %2, align 4
  %7 = load i32, ptr %2, align 4
  %8 = sub nsw i32 %7, 1
  %9 = and i32 %6, %8
  %10 = icmp eq i32 %9, 0
  br label %11

11:                                               ; preds = %5, %1
  %12 = phi i1 [ false, %1 ], [ %10, %5 ]
  ret i1 %12
}

; Function Attrs: mustprogress nounwind uwtable
define linkonce_odr hidden noundef i32 @_Z19round_up_power_of_2IiTnNSt9enable_ifIXcvbsr3std11is_integralIT_EE5valueEiE4typeELi0EES1_S1_(i32 noundef %0) #1 comdat {
  %2 = alloca i32, align 4
  %3 = alloca i32, align 4
  store i32 %0, ptr %3, align 4
  %4 = load i32, ptr %3, align 4
  %5 = call noundef zeroext i1 @_Z13is_power_of_2IiTnNSt9enable_ifIXcvbsr3std11is_integralIT_EE5valueEiE4typeELi0EEbS1_(i32 noundef %4)
  br i1 %5, label %6, label %8

6:                                                ; preds = %1
  %7 = load i32, ptr %3, align 4
  store i32 %7, ptr %2, align 4
  br label %13

8:                                                ; preds = %1
  %9 = load i32, ptr %3, align 4
  %10 = call noundef i32 @_Z5log2iIiTnNSt9enable_ifIXcvbsr3std11is_integralIT_EE5valueEiE4typeELi0EEiS1_(i32 noundef %9)
  %11 = add nsw i32 %10, 1
  %12 = shl i32 1, %11
  store i32 %12, ptr %2, align 4
  br label %13

13:                                               ; preds = %8, %6
  %14 = load i32, ptr %2, align 4
  ret i32 %14
}

; Function Attrs: mustprogress nounwind uwtable
define linkonce_odr hidden noundef i32 @_Z15next_power_of_2IiTnNSt9enable_ifIXcvbsr3std11is_integralIT_EE5valueEiE4typeELi0EES1_S1_(i32 noundef %0) #1 comdat {
  %2 = alloca i32, align 4
  store i32 %0, ptr %2, align 4
  %3 = load i32, ptr %2, align 4
  %4 = add nsw i32 %3, 1
  %5 = call noundef i32 @_Z19round_up_power_of_2IiTnNSt9enable_ifIXcvbsr3std11is_integralIT_EE5valueEiE4typeELi0EES1_S1_(i32 noundef %4)
  ret i32 %5
}

; Function Attrs: mustprogress nounwind uwtable
define linkonce_odr hidden void @_ZN26GrowableArrayWithAllocatorIP10ChangeItem13GrowableArrayIS1_EE4growEi(ptr noundef nonnull align 8 dereferenceable(16) %0, i32 noundef %1) #1 comdat align 2 {
  %3 = alloca ptr, align 8
  %4 = alloca i32, align 4
  store ptr %0, ptr %3, align 8
  store i32 %1, ptr %4, align 4
  %5 = load ptr, ptr %3, align 8
  %6 = load i32, ptr %4, align 4
  %7 = call noundef i32 @_Z15next_power_of_2IiTnNSt9enable_ifIXcvbsr3std11is_integralIT_EE5valueEiE4typeELi0EES1_S1_(i32 noundef %6)
  call void @_ZN26GrowableArrayWithAllocatorIP10ChangeItem13GrowableArrayIS1_EE9expand_toEi(ptr noundef nonnull align 8 dereferenceable(16) %5, i32 noundef %7)
  ret void
}

; Function Attrs: mustprogress nounwind uwtable
define linkonce_odr hidden noundef i32 @_ZN26GrowableArrayWithAllocatorIP10ChangeItem13GrowableArrayIS1_EE6appendERKS1_(ptr noundef nonnull align 8 dereferenceable(16) %0, ptr noundef nonnull align 8 dereferenceable(8) %1) #1 comdat align 2 {
  %3 = alloca ptr, align 8
  %4 = alloca ptr, align 8
  %5 = alloca i32, align 4
  store ptr %0, ptr %3, align 8
  store ptr %1, ptr %4, align 8
  %6 = load ptr, ptr %3, align 8
  %7 = getelementptr inbounds %class.GrowableArrayBase, ptr %6, i32 0, i32 0
  %8 = load i32, ptr %7, align 8
  %9 = getelementptr inbounds %class.GrowableArrayBase, ptr %6, i32 0, i32 1
  %10 = load i32, ptr %9, align 4
  %11 = icmp eq i32 %8, %10
  br i1 %11, label %12, label %15

12:                                               ; preds = %2
  %13 = getelementptr inbounds %class.GrowableArrayBase, ptr %6, i32 0, i32 0
  %14 = load i32, ptr %13, align 8
  call void @_ZN26GrowableArrayWithAllocatorIP10ChangeItem13GrowableArrayIS1_EE4growEi(ptr noundef nonnull align 8 dereferenceable(16) %6, i32 noundef %14)
  br label %15

15:                                               ; preds = %12, %2
  %16 = getelementptr inbounds %class.GrowableArrayBase, ptr %6, i32 0, i32 0
  %17 = load i32, ptr %16, align 8
  %18 = add nsw i32 %17, 1
  store i32 %18, ptr %16, align 8
  store i32 %17, ptr %5, align 4
  %19 = load ptr, ptr %4, align 8
  %20 = load ptr, ptr %19, align 8
  %21 = getelementptr inbounds %class.GrowableArrayView, ptr %6, i32 0, i32 1
  %22 = load ptr, ptr %21, align 8
  %23 = load i32, ptr %5, align 4
  %24 = sext i32 %23 to i64
  %25 = getelementptr inbounds ptr, ptr %22, i64 %24
  store ptr %20, ptr %25, align 8
  %26 = load i32, ptr %5, align 4
  ret i32 %26
}

; Function Attrs: mustprogress nounwind uwtable
define linkonce_odr hidden void @_ZN10ChangeItemC2Ei(ptr noundef nonnull align 8 dereferenceable(12) %0, i32 noundef %1) unnamed_addr #1 comdat align 2 {
  %3 = alloca ptr, align 8
  %4 = alloca i32, align 4
  store ptr %0, ptr %3, align 8
  store i32 %1, ptr %4, align 4
  %5 = load ptr, ptr %3, align 8
  store ptr getelementptr inbounds inrange(-16, 32) ({ [6 x ptr] }, ptr @_ZTV10ChangeItem, i32 0, i32 0, i32 2), ptr %5, align 8
  %6 = load i32, ptr %4, align 4
  %7 = getelementptr inbounds %class.ChangeItem, ptr %5, i32 0, i32 1
  store i32 %6, ptr %7, align 8
  ret void
}

; Function Attrs: mustprogress nounwind uwtable
define linkonce_odr hidden void @_ZN26GrowableArrayWithAllocatorIP10ChangeItem13GrowableArrayIS1_EE4pushERKS1_(ptr noundef nonnull align 8 dereferenceable(16) %0, ptr noundef nonnull align 8 dereferenceable(8) %1) #1 comdat align 2 {
  %3 = alloca ptr, align 8
  %4 = alloca ptr, align 8
  store ptr %0, ptr %3, align 8
  store ptr %1, ptr %4, align 8
  %5 = load ptr, ptr %3, align 8
  %6 = load ptr, ptr %4, align 8
  %7 = call noundef i32 @_ZN26GrowableArrayWithAllocatorIP10ChangeItem13GrowableArrayIS1_EE6appendERKS1_(ptr noundef nonnull align 8 dereferenceable(16) %5, ptr noundef nonnull align 8 dereferenceable(8) %6)
  ret void
}

; Function Attrs: mustprogress nounwind uwtable
define linkonce_odr hidden void @_ZN15ChangeJumpWidenC2Eii(ptr noundef nonnull align 8 dereferenceable(16) %0, i32 noundef %1, i32 noundef %2) unnamed_addr #1 comdat align 2 {
  %4 = alloca ptr, align 8
  %5 = alloca i32, align 4
  %6 = alloca i32, align 4
  store ptr %0, ptr %4, align 8
  store i32 %1, ptr %5, align 4
  store i32 %2, ptr %6, align 4
  %7 = load ptr, ptr %4, align 8
  %8 = load i32, ptr %5, align 4
  call void @_ZN10ChangeItemC2Ei(ptr noundef nonnull align 8 dereferenceable(12) %7, i32 noundef %8)
  store ptr getelementptr inbounds inrange(-16, 32) ({ [6 x ptr] }, ptr @_ZTV15ChangeJumpWiden, i32 0, i32 0, i32 2), ptr %7, align 8
  %9 = load i32, ptr %6, align 4
  %10 = getelementptr inbounds %class.ChangeJumpWiden, ptr %7, i32 0, i32 1
  store i32 %9, ptr %10, align 4
  ret void
}

; Function Attrs: mustprogress nounwind uwtable
define linkonce_odr hidden noundef ptr @_ZN11ResourceObjnwEm(i64 noundef %0) #1 comdat align 2 {
  %2 = alloca i64, align 8
  store i64 %0, ptr %2, align 8
  %3 = load i64, ptr %2, align 8
  %4 = call noundef ptr @_Z23resource_allocate_bytesmN17AllocFailStrategy13AllocFailEnumE(i64 noundef %3, i32 noundef 0)
  ret ptr %4
}

; Function Attrs: mustprogress nounwind uwtable
define linkonce_odr hidden noundef nonnull align 8 dereferenceable(8) ptr @_ZN17GrowableArrayViewIP10ChangeItemE2atEi(ptr noundef nonnull align 8 dereferenceable(16) %0, i32 noundef %1) #1 comdat align 2 {
  %3 = alloca ptr, align 8
  %4 = alloca i32, align 4
  store ptr %0, ptr %3, align 8
  store i32 %1, ptr %4, align 4
  %5 = load ptr, ptr %3, align 8
  %6 = getelementptr inbounds %class.GrowableArrayView, ptr %5, i32 0, i32 1
  %7 = load ptr, ptr %6, align 8
  %8 = load i32, ptr %4, align 4
  %9 = sext i32 %8 to i64
  %10 = getelementptr inbounds ptr, ptr %7, i64 %9
  ret ptr %10
}

; Function Attrs: mustprogress nounwind uwtable
define linkonce_odr hidden noundef i32 @_ZNK17GrowableArrayBase6lengthEv(ptr noundef nonnull align 4 dereferenceable(8) %0) #1 comdat align 2 {
  %2 = alloca ptr, align 8
  store ptr %0, ptr %2, align 8
  %3 = load ptr, ptr %2, align 8
  %4 = getelementptr inbounds %class.GrowableArrayBase, ptr %3, i32 0, i32 0
  %5 = load i32, ptr %4, align 4
  ret i32 %5
}

; Function Attrs: mustprogress nounwind uwtable
define hidden void @_ZN9Relocator15push_jump_widenEiii(ptr noundef nonnull align 8 dereferenceable(72) %0, i32 noundef %1, i32 noundef %2, i32 noundef %3) #1 align 2 {
  %5 = alloca ptr, align 8
  %6 = alloca i32, align 4
  %7 = alloca i32, align 4
  %8 = alloca i32, align 4
  %9 = alloca i32, align 4
  %10 = alloca ptr, align 8
  %11 = alloca ptr, align 8
  store ptr %0, ptr %5, align 8
  store i32 %1, ptr %6, align 4
  store i32 %2, ptr %7, align 4
  store i32 %3, ptr %8, align 4
  %12 = load ptr, ptr %5, align 8
  store i32 0, ptr %9, align 4
  br label %13

13:                                               ; preds = %34, %4
  %14 = load i32, ptr %9, align 4
  %15 = getelementptr inbounds %class.Relocator, ptr %12, i32 0, i32 7
  %16 = load ptr, ptr %15, align 8
  %17 = call noundef i32 @_ZNK17GrowableArrayBase6lengthEv(ptr noundef nonnull align 4 dereferenceable(8) %16)
  %18 = icmp slt i32 %14, %17
  br i1 %18, label %19, label %37

19:                                               ; preds = %13
  %20 = getelementptr inbounds %class.Relocator, ptr %12, i32 0, i32 7
  %21 = load ptr, ptr %20, align 8
  %22 = load i32, ptr %9, align 4
  %23 = call noundef nonnull align 8 dereferenceable(8) ptr @_ZN17GrowableArrayViewIP10ChangeItemE2atEi(ptr noundef nonnull align 8 dereferenceable(16) %21, i32 noundef %22)
  %24 = load ptr, ptr %23, align 8
  store ptr %24, ptr %10, align 8
  %25 = load ptr, ptr %10, align 8
  %26 = load i32, ptr %6, align 4
  %27 = load i32, ptr %7, align 4
  %28 = load ptr, ptr %25, align 8
  %29 = getelementptr inbounds ptr, ptr %28, i64 2
  %30 = load ptr, ptr %29, align 8
  %31 = call noundef zeroext i1 %30(ptr noundef nonnull align 8 dereferenceable(12) %25, i32 noundef %26, i32 noundef %27)
  br i1 %31, label %32, label %33

32:                                               ; preds = %19
  br label %43

33:                                               ; preds = %19
  br label %34

34:                                               ; preds = %33
  %35 = load i32, ptr %9, align 4
  %36 = add nsw i32 %35, 1
  store i32 %36, ptr %9, align 4
  br label %13, !llvm.loop !10

37:                                               ; preds = %13
  %38 = getelementptr inbounds %class.Relocator, ptr %12, i32 0, i32 7
  %39 = load ptr, ptr %38, align 8
  %40 = call noundef ptr @_ZN11ResourceObjnwEm(i64 noundef 16)
  %41 = load i32, ptr %6, align 4
  %42 = load i32, ptr %8, align 4
  call void @_ZN15ChangeJumpWidenC2Eii(ptr noundef nonnull align 8 dereferenceable(16) %40, i32 noundef %41, i32 noundef %42)
  store ptr %40, ptr %11, align 8
  call void @_ZN26GrowableArrayWithAllocatorIP10ChangeItem13GrowableArrayIS1_EE4pushERKS1_(ptr noundef nonnull align 8 dereferenceable(16) %39, ptr noundef nonnull align 8 dereferenceable(8) %11)
  br label %43

43:                                               ; preds = %37, %32
  ret void
}