; Function Attrs: mustprogress nounwind uwtable
define hidden void @_ZN9Relocator15push_jump_widenEiii(ptr nocapture noundef nonnull readonly align 8 dereferenceable(72) %0, i32 noundef %1, i32 noundef %2, i32 noundef %3) local_unnamed_addr #0 align 2 {
  %5 = getelementptr inbounds i8, ptr %0, i64 56
  %6 = load ptr, ptr %5, align 8
  %7 = load i32, ptr %6, align 4
  %8 = icmp sgt i32 %7, 0
  br i1 %8, label %.lr.ph, label %._crit_edge

9:                                                ; preds = %.lr.ph
  %indvars.iv.next = add nuw nsw i64 %indvars.iv, 1
  %10 = load ptr, ptr %5, align 8
  %11 = load i32, ptr %10, align 4
  %12 = sext i32 %11 to i64
  %13 = icmp slt i64 %indvars.iv.next, %12
  br i1 %13, label %.lr.ph, label %._crit_edge, !llvm.loop !10

.lr.ph:                                           ; preds = %4, %9
  %indvars.iv = phi i64 [ %indvars.iv.next, %9 ], [ 0, %4 ]
  %14 = phi ptr [ %10, %9 ], [ %6, %4 ]
  %15 = getelementptr inbounds i8, ptr %14, i64 8
  %16 = load ptr, ptr %15, align 8
  %17 = getelementptr inbounds ptr, ptr %16, i64 %indvars.iv
  %18 = load ptr, ptr %17, align 8
  %19 = load ptr, ptr %18, align 8
  %20 = getelementptr inbounds i8, ptr %19, i64 16
  %21 = load ptr, ptr %20, align 8
  %22 = tail call noundef zeroext i1 %21(ptr noundef nonnull align 8 dereferenceable(12) %18, i32 noundef %1, i32 noundef %2) #10
  br i1 %22, label %.loopexit, label %9

._crit_edge:                                      ; preds = %9, %4
  %.lcssa = phi ptr [ %6, %4 ], [ %10, %9 ]
  %23 = tail call noundef ptr @_Z23resource_allocate_bytesmN17AllocFailStrategy13AllocFailEnumE(i64 noundef 16, i32 noundef 0) #10
  %24 = getelementptr inbounds i8, ptr %23, i64 8
  store i32 %1, ptr %24, align 8
  store ptr getelementptr inbounds inrange(-16, 32) (i8, ptr @_ZTV15ChangeJumpWiden, i64 16), ptr %23, align 8
  %25 = getelementptr inbounds i8, ptr %23, i64 12
  store i32 %3, ptr %25, align 4
  %26 = load i32, ptr %.lcssa, align 8
  %27 = getelementptr inbounds i8, ptr %.lcssa, i64 4
  %28 = load i32, ptr %27, align 4
  %29 = icmp eq i32 %26, %28
  br i1 %29, label %30, label %_ZN26GrowableArrayWithAllocatorIP10ChangeItem13GrowableArrayIS1_EE4pushERKS1_.exit

30:                                               ; preds = %._crit_edge
  %31 = add nsw i32 %26, 1
  %32 = icmp sgt i32 %26, -1
  %33 = xor i32 %26, -2147483648
  %34 = and i32 %33, %31
  %35 = icmp eq i32 %34, 0
  %36 = and i1 %32, %35
  %37 = tail call range(i32 0, 33) i32 @llvm.ctlz.i32(i32 %31, i1 true)
  %38 = sub nuw nsw i32 32, %37
  %39 = shl nuw i32 1, %38
  %.0.i.i.i.i.i = select i1 %36, i32 %31, i32 %39
  tail call void @_ZN26GrowableArrayWithAllocatorIP10ChangeItem13GrowableArrayIS1_EE9expand_toEi(ptr noundef nonnull align 8 dereferenceable(16) %.lcssa, i32 noundef %.0.i.i.i.i.i)
  %.pre.i.i = load i32, ptr %.lcssa, align 8
  br label %_ZN26GrowableArrayWithAllocatorIP10ChangeItem13GrowableArrayIS1_EE4pushERKS1_.exit

_ZN26GrowableArrayWithAllocatorIP10ChangeItem13GrowableArrayIS1_EE4pushERKS1_.exit: ; preds = %._crit_edge, %30
  %40 = phi i32 [ %.pre.i.i, %30 ], [ %26, %._crit_edge ]
  %41 = add nsw i32 %40, 1
  store i32 %41, ptr %.lcssa, align 8
  %42 = getelementptr inbounds i8, ptr %.lcssa, i64 8
  %43 = load ptr, ptr %42, align 8
  %44 = sext i32 %40 to i64
  %45 = getelementptr inbounds ptr, ptr %43, i64 %44
  store ptr %23, ptr %45, align 8
  br label %.loopexit

.loopexit:                                        ; preds = %.lr.ph, %_ZN26GrowableArrayWithAllocatorIP10ChangeItem13GrowableArrayIS1_EE4pushERKS1_.exit
  ret void
}